; Function Attrs: nounwind sspstrong uwtable
define internal range(i64 0, 21) i64 @rb_reg_s_linear_time_p(i32 noundef %0, ptr noundef readonly captures(none) %1, i64 %2) #2 {
  %4 = alloca %struct.reg_init_args, align 8
  call void @llvm.lifetime.start.p0(i64 32, ptr nonnull %4) #29
  %5 = call fastcc i64 @reg_extract_args(i32 noundef %0, ptr noundef %1, ptr noundef %4)
  %6 = icmp eq i64 %5, 4
  br i1 %6, label %7, label %._crit_edge

._crit_edge:                                      ; preds = %3
  %.pre = inttoptr i64 %5 to ptr
  br label %20

7:                                                ; preds = %3
  %8 = load i64, ptr @rb_cRegexp, align 8, !tbaa !18
  %9 = call align 8 ptr @llvm.threadlocal.address.p0(ptr align 8 @ruby_current_ec)
  %10 = load ptr, ptr %9, align 8, !tbaa !41
  %11 = call i64 @rb_wb_protected_newobj_of(ptr noundef %10, i64 noundef %8, i64 noundef 6, i64 noundef 40) #29
  %12 = inttoptr i64 %11 to ptr
  %13 = getelementptr inbounds nuw i8, ptr %12, i64 16
  call void @llvm.memset.p0.i64(ptr noundef nonnull align 8 dereferenceable(24) %13, i8 0, i64 24, i1 false)
  %14 = load i64, ptr %4, align 8, !tbaa !193
  %15 = getelementptr inbounds nuw i8, ptr %4, i64 16
  %16 = load ptr, ptr %15, align 8, !tbaa !195
  %17 = getelementptr inbounds nuw i8, ptr %4, i64 24
  %18 = load i32, ptr %17, align 8, !tbaa !196
  %19 = call fastcc i64 @reg_init_args(i64 noundef %11, i64 noundef %14, ptr noundef %16, i32 noundef %18)
  br label %20

20:                                               ; preds = %._crit_edge, %7
  %.pre-phi = phi ptr [ %.pre, %._crit_edge ], [ %12, %7 ]
  %21 = getelementptr inbounds nuw i8, ptr %.pre-phi, i64 16
  %22 = load ptr, ptr %21, align 8, !tbaa !37
  %23 = call i32 @onig_check_linear_time(ptr noundef %22) #29
  %.not = icmp eq i32 %23, 0
  %24 = select i1 %.not, i64 0, i64 20
  call void @llvm.lifetime.end.p0(i64 32, ptr nonnull %4) #29
  ret i64 %24
}